; Function Attrs: mustprogress uwtable
define internal void @"_ZNSt17_Function_handlerIFvvEZ4mainE3$_1E9_M_invokeERKSt9_Any_data"(ptr nocapture noundef nonnull readonly align 8 dereferenceable(16) %__functor) #6 align 2 {
entry:
  %call.i.i.i = tail call noundef nonnull align 8 dereferenceable(8) ptr @_ZStlsISt11char_traitsIcEERSt13basic_ostreamIcT_ES5_PKc(ptr noundef nonnull align 8 dereferenceable(8) @_ZSt4cout, ptr noundef nonnull @.str.57)
  %0 = load ptr, ptr %__functor, align 8
  %1 = load i32, ptr %0, align 4
  %inc.i.i.i = add nsw i32 %1, 1
  store i32 %inc.i.i.i, ptr %0, align 4
  %call2.i.i.i = tail call noundef nonnull align 8 dereferenceable(8) ptr @_ZNSolsEi(ptr noundef nonnull align 8 dereferenceable(8) %call.i.i.i, i32 noundef %1)
  %call3.i.i.i = tail call noundef nonnull align 8 dereferenceable(8) ptr @_ZStlsISt11char_traitsIcEERSt13basic_ostreamIcT_ES5_c(ptr noundef nonnull align 8 dereferenceable(8) %call2.i.i.i, i8 noundef signext 10)
  ret void
}